; Function Attrs: nounwind uwtable
define internal fastcc void @arena_dalloc_no_tcache(ptr noundef %tsdn, ptr noundef %ptr) unnamed_addr #0 {
entry:
  %rtree_ctx_fallback.i.i = alloca %struct.rtree_ctx_s, align 8
  %tmp.i.i = alloca %struct.rtree_contents_s, align 8
  %rtree_ctx_fallback.i = alloca %struct.rtree_ctx_s, align 8
  %cmp.i.i.i = icmp eq ptr %tsdn, null
  %0 = ptrtoint ptr %ptr to i64
  br i1 %cmp.i.i.i, label %emap_alloc_ctx_lookup.exit, label %emap_alloc_ctx_lookup.exit.thread

emap_alloc_ctx_lookup.exit:                       ; preds = %entry
  call void @rtree_ctx_data_init(ptr noundef nonnull %rtree_ctx_fallback.i) #11
  %call1.i10 = call fastcc { i64, i32 } @rtree_metadata_read(ptr noundef null, ptr noundef nonnull %rtree_ctx_fallback.i, i64 noundef %0)
  %call1.i.fca.1.extract = extractvalue { i64, i32 } %call1.i10, 1
  %1 = and i32 %call1.i.fca.1.extract, 256
  %tobool.i.not = icmp eq i32 %1, 0
  br i1 %tobool.i.not, label %if.then.i.i14, label %if.then

emap_alloc_ctx_lookup.exit.thread:                ; preds = %entry
  %cant_access_tsd_items_directly_use_a_getter_or_setter_rtree_ctx.i.i = getelementptr inbounds i8, ptr %tsdn, i64 448
  %call1.i11 = tail call fastcc { i64, i32 } @rtree_metadata_read(ptr noundef nonnull %tsdn, ptr noundef nonnull %cant_access_tsd_items_directly_use_a_getter_or_setter_rtree_ctx.i.i, i64 noundef %0)
  %call1.i.fca.1.extract16 = extractvalue { i64, i32 } %call1.i11, 1
  %2 = and i32 %call1.i.fca.1.extract16, 256
  %tobool.i.not17 = icmp eq i32 %2, 0
  br i1 %tobool.i.not17, label %if.end.i.split.i, label %if.then

if.then:                                          ; preds = %emap_alloc_ctx_lookup.exit.thread, %emap_alloc_ctx_lookup.exit
  call void @arena_dalloc_small(ptr noundef %tsdn, ptr noundef %ptr) #11
  br label %if.end

if.then.i.i14:                                    ; preds = %emap_alloc_ctx_lookup.exit
  call void @llvm.lifetime.start.p0(i64 384, ptr nonnull %rtree_ctx_fallback.i.i)
  call void @llvm.lifetime.start.p0(i64 24, ptr nonnull %tmp.i.i)
  call void @rtree_ctx_data_init(ptr noundef nonnull %rtree_ctx_fallback.i.i) #11
  call fastcc void @rtree_read(ptr dead_on_unwind noalias nonnull writable align 8 %tmp.i.i, ptr noundef null, ptr noundef nonnull %rtree_ctx_fallback.i.i, i64 noundef %0)
  br label %arena_dalloc_large_no_tcache.exit

if.end.i.split.i:                                 ; preds = %emap_alloc_ctx_lookup.exit.thread
  call void @llvm.lifetime.start.p0(i64 384, ptr nonnull %rtree_ctx_fallback.i.i)
  call void @llvm.lifetime.start.p0(i64 24, ptr nonnull %tmp.i.i)
  call fastcc void @rtree_read(ptr dead_on_unwind noalias nonnull writable align 8 %tmp.i.i, ptr noundef nonnull %tsdn, ptr noundef nonnull %cant_access_tsd_items_directly_use_a_getter_or_setter_rtree_ctx.i.i, i64 noundef %0)
  br label %arena_dalloc_large_no_tcache.exit

arena_dalloc_large_no_tcache.exit:                ; preds = %if.then.i.i14, %if.end.i.split.i
  %3 = load ptr, ptr %tmp.i.i, align 8
  call void @large_dalloc(ptr noundef %tsdn, ptr noundef %3) #11
  call void @llvm.lifetime.end.p0(i64 384, ptr nonnull %rtree_ctx_fallback.i.i)
  call void @llvm.lifetime.end.p0(i64 24, ptr nonnull %tmp.i.i)
  br label %if.end

if.end:                                           ; preds = %arena_dalloc_large_no_tcache.exit, %if.then
  ret void
}